; Function Attrs: nounwind uwtable
define internal noundef ptr @_curses_panel_panel_set_userptr(ptr noundef readonly captures(none) %0, ptr noundef %1, ptr noundef %2, i64 noundef %3, ptr noundef %4) #0 {
  %6 = alloca [1 x ptr], align 8
  call void @llvm.lifetime.start.p0(i64 8, ptr nonnull %6) #4
  %7 = icmp eq ptr %4, null
  %8 = icmp eq i64 %3, 1
  %or.cond3 = and i1 %8, %7
  %9 = icmp ne ptr %2, null
  %or.cond5 = and i1 %9, %or.cond3
  br i1 %or.cond5, label %.thread, label %10

10:                                               ; preds = %5
  %11 = call ptr @_PyArg_UnpackKeywords(ptr noundef %2, i64 noundef %3, ptr noundef null, ptr noundef %4, ptr noundef nonnull @_curses_panel_panel_set_userptr._parser, i32 noundef 1, i32 noundef 1, i32 noundef 0, i32 noundef 0, ptr noundef nonnull %6) #4
  %.not = icmp eq ptr %11, null
  br i1 %.not, label %_curses_panel_panel_set_userptr_impl.exit, label %.thread

.thread:                                          ; preds = %5, %10
  %12 = phi ptr [ %11, %10 ], [ %2, %5 ]
  %13 = load ptr, ptr %12, align 8, !tbaa !13
  %14 = load ptr, ptr @PyCurses_API, align 8, !tbaa !16
  %15 = getelementptr i8, ptr %14, i64 16
  %16 = load ptr, ptr %15, align 8, !tbaa !16
  %17 = call i32 %16() #4
  %.not.i = icmp eq i32 %17, 0
  br i1 %.not.i, label %_curses_panel_panel_set_userptr_impl.exit, label %18

18:                                               ; preds = %.thread
  %19 = load i32, ptr %13, align 8, !tbaa !14
  %20 = icmp slt i32 %19, 0
  br i1 %20, label %Py_INCREF.exit.i, label %21

21:                                               ; preds = %18
  %22 = add nuw i32 %19, 1
  store i32 %22, ptr %13, align 8, !tbaa !14
  br label %Py_INCREF.exit.i

Py_INCREF.exit.i:                                 ; preds = %21, %18
  %23 = getelementptr inbounds nuw i8, ptr %0, i64 16
  %24 = load ptr, ptr %23, align 8, !tbaa !21
  %25 = call ptr @panel_userptr(ptr noundef %24) #4
  %26 = load ptr, ptr %23, align 8, !tbaa !21
  %27 = call i32 @set_panel_userptr(ptr noundef %26, ptr noundef nonnull %13) #4
  %28 = icmp eq i32 %27, -1
  br i1 %28, label %.split.i, label %.split11.i

.split.i:                                         ; preds = %Py_INCREF.exit.i
  %29 = load i32, ptr %13, align 8, !tbaa !14
  %.not.i.i = icmp sgt i32 %29, -1
  br i1 %.not.i.i, label %30, label %Py_DECREF.exit.i

30:                                               ; preds = %.split.i
  %31 = add nsw i32 %29, -1
  store i32 %31, ptr %13, align 8, !tbaa !14
  %32 = icmp eq i32 %31, 0
  br i1 %32, label %33, label %Py_DECREF.exit.i

33:                                               ; preds = %30
  call void @_Py_Dealloc(ptr noundef nonnull %13) #4
  br label %Py_DECREF.exit.i

Py_DECREF.exit.i:                                 ; preds = %33, %30, %.split.i
  %34 = call ptr @PyType_GetModuleState(ptr noundef %1) #4
  %35 = load ptr, ptr %34, align 8, !tbaa !9
  %36 = call ptr (ptr, ptr, ...) @PyErr_Format(ptr noundef %35, ptr noundef nonnull @.str.33, ptr noundef nonnull @.str.40) #4
  br label %_curses_panel_panel_set_userptr_impl.exit

.split11.i:                                       ; preds = %Py_INCREF.exit.i
  %.not.i13.i = icmp eq ptr %25, null
  br i1 %.not.i13.i, label %PyCursesCheckERR.exit.i, label %37

37:                                               ; preds = %.split11.i
  %38 = load i32, ptr %25, align 8, !tbaa !14
  %.not.i.i.i = icmp sgt i32 %38, -1
  br i1 %.not.i.i.i, label %39, label %PyCursesCheckERR.exit.i

39:                                               ; preds = %37
  %40 = add nsw i32 %38, -1
  store i32 %40, ptr %25, align 8, !tbaa !14
  %41 = icmp eq i32 %40, 0
  br i1 %41, label %42, label %PyCursesCheckERR.exit.i

42:                                               ; preds = %39
  call void @_Py_Dealloc(ptr noundef nonnull %25) #4
  br label %PyCursesCheckERR.exit.i

PyCursesCheckERR.exit.i:                          ; preds = %42, %39, %37, %.split11.i
  %43 = call ptr @PyType_GetModuleState(ptr noundef %1) #4
  br label %_curses_panel_panel_set_userptr_impl.exit

_curses_panel_panel_set_userptr_impl.exit:        ; preds = %PyCursesCheckERR.exit.i, %Py_DECREF.exit.i, %.thread, %10
  %.0 = phi ptr [ null, %10 ], [ null, %.thread ], [ null, %Py_DECREF.exit.i ], [ @_Py_NoneStruct, %PyCursesCheckERR.exit.i ]
  call void @llvm.lifetime.end.p0(i64 8, ptr nonnull %6) #4
  ret ptr %.0
}